; Function Attrs: nounwind sspstrong uwtable
define internal void @sifive_pwm_class_init(ptr noundef %klass, ptr readnone captures(none) %data) #0 {
entry:
  %call.i = tail call ptr @object_class_dynamic_cast_assert(ptr noundef %klass, ptr noundef nonnull @.str.14, ptr noundef nonnull @.str.15, i32 noundef 77, ptr noundef nonnull @__func__.DEVICE_CLASS) #6
  %reset = getelementptr inbounds nuw i8, ptr %call.i, i64 136
  store ptr @sifive_pwm_reset, ptr %reset, align 8
  tail call void @device_class_set_props(ptr noundef %call.i, ptr noundef nonnull @sifive_pwm_properties) #6
  %vmsd = getelementptr inbounds nuw i8, ptr %call.i, i64 160
  store ptr @vmstate_sifive_pwm, ptr %vmsd, align 8
  %realize = getelementptr inbounds nuw i8, ptr %call.i, i64 144
  store ptr @sifive_pwm_realize, ptr %realize, align 8
  ret void
}